	.file	"shift.cpp"
	.text
.Ltext0:
	.section	.text._ZNSt7complexIdEC2Edd,"axG",@progbits,_ZNSt7complexIdEC5Edd,comdat
	.align 2
	.weak	_ZNSt7complexIdEC2Edd
	.type	_ZNSt7complexIdEC2Edd, @function
_ZNSt7complexIdEC2Edd:
.LFB1228:
	.file 1 "/usr/include/c++/4.7/complex"
	.loc 1 1195 0
	.cfi_startproc
	pushq	%rbp
.LCFI0:
	.cfi_def_cfa_offset 16
	.cfi_offset 6, -16
	movq	%rsp, %rbp
.LCFI1:
	.cfi_def_cfa_register 6
	movq	%rdi, -8(%rbp)
	movsd	%xmm0, -16(%rbp)
	movsd	%xmm1, -24(%rbp)
.LBB2:
	.loc 1 1200 0
	movq	-8(%rbp), %rdx
	movq	-16(%rbp), %rax
	movq	%rax, (%rdx)
	.loc 1 1201 0
	movq	-8(%rbp), %rdx
	movq	-24(%rbp), %rax
	movq	%rax, 8(%rdx)
.LBE2:
	.loc 1 1202 0
	popq	%rbp
.LCFI2:
	.cfi_def_cfa 7, 8
	ret
	.cfi_endproc
.LFE1228:
	.size	_ZNSt7complexIdEC2Edd, .-_ZNSt7complexIdEC2Edd
	.weak	_ZNSt7complexIdEC1Edd
	.set	_ZNSt7complexIdEC1Edd,_ZNSt7complexIdEC2Edd
	.section	.text._ZNSt7complexIdE4realEv,"axG",@progbits,_ZNSt7complexIdE4realEv,comdat
	.align 2
	.weak	_ZNSt7complexIdE4realEv
	.type	_ZNSt7complexIdE4realEv, @function
_ZNSt7complexIdE4realEv:
.LFB1233:
	.loc 1 1220 0
	.cfi_startproc
	pushq	%rbp
.LCFI3:
	.cfi_def_cfa_offset 16
	.cfi_offset 6, -16
	movq	%rsp, %rbp
.LCFI4:
	.cfi_def_cfa_register 6
	movq	%rdi, -8(%rbp)
	.loc 1 1220 0
	movq	-8(%rbp), %rax
	popq	%rbp
.LCFI5:
	.cfi_def_cfa 7, 8
	ret
	.cfi_endproc
.LFE1233:
	.size	_ZNSt7complexIdE4realEv, .-_ZNSt7complexIdE4realEv
	.section	.text._ZNSt7complexIdEaSEd,"axG",@progbits,_ZNSt7complexIdEaSEd,comdat
	.align 2
	.weak	_ZNSt7complexIdEaSEd
	.type	_ZNSt7complexIdEaSEd, @function
_ZNSt7complexIdEaSEd:
.LFB1239:
	.loc 1 1241 0
	.cfi_startproc
	pushq	%rbp
.LCFI6:
	.cfi_def_cfa_offset 16
	.cfi_offset 6, -16
	movq	%rsp, %rbp
.LCFI7:
	.cfi_def_cfa_register 6
	movq	%rdi, -8(%rbp)
	movsd	%xmm0, -16(%rbp)
	.loc 1 1243 0
	movq	-16(%rbp), %rcx
	movl	$0, %edx
	movq	-8(%rbp), %rax
	movq	%rcx, (%rax)
	movq	%rdx, 8(%rax)
	.loc 1 1244 0
	movq	-8(%rbp), %rax
	.loc 1 1245 0
	popq	%rbp
.LCFI8:
	.cfi_def_cfa 7, 8
	ret
	.cfi_endproc
.LFE1239:
	.size	_ZNSt7complexIdEaSEd, .-_ZNSt7complexIdEaSEd
	.text
	.globl	_Z5shiftiiPiPdS0_PSt7complexIdES0_PS0_S0_S3_S3_S0_S3_S3_S0_S0_S0_iP11fftw_plan_sS6_
	.type	_Z5shiftiiPiPdS0_PSt7complexIdES0_PS0_S0_S3_S3_S0_S3_S3_S0_S0_S0_iP11fftw_plan_sS6_, @function
_Z5shiftiiPiPdS0_PSt7complexIdES0_PS0_S0_S3_S3_S0_S3_S3_S0_S0_S0_iP11fftw_plan_sS6_:
.LFB1288:
	.file 2 "shift.cpp"
	.loc 2 10 0
	.cfi_startproc
	.cfi_personality 0x3,__gxx_personality_v0
	.cfi_lsda 0x3,.LLSDA1288
	pushq	%rbp
.LCFI9:
	.cfi_def_cfa_offset 16
	.cfi_offset 6, -16
	movq	%rsp, %rbp
.LCFI10:
	.cfi_def_cfa_register 6
	pushq	%rbx
	subq	$232, %rsp
	.cfi_offset 3, -24
	movl	%edi, -180(%rbp)
	movl	%esi, -184(%rbp)
	movq	%rdx, -192(%rbp)
	movq	%rcx, -200(%rbp)
	movq	%r8, -208(%rbp)
	movq	%r9, -216(%rbp)
.LBB3:
	.loc 2 19 0
	movl	-180(%rbp), %eax
	movl	%eax, -20(%rbp)
.LBB4:
	.loc 2 20 0
	movl	$1, -24(%rbp)
	jmp	.L7
.L8:
	.loc 2 22 0 discriminator 2
	movl	-24(%rbp), %eax
	cltq
	subq	$1, %rax
	leaq	0(,%rax,4), %rdx
	movq	-192(%rbp), %rax
	addq	%rdx, %rax
	movl	(%rax), %eax
	addl	%eax, -20(%rbp)
	.loc 2 20 0 discriminator 2
	addl	$1, -24(%rbp)
.L7:
	.loc 2 20 0 is_stmt 0 discriminator 1
	movl	104(%rbp), %eax
	subl	$1, %eax
	cmpl	-24(%rbp), %eax
	setge	%al
	testb	%al, %al
	jne	.L8
.LBE4:
	.loc 2 24 0 is_stmt 1
	movl	$0, -28(%rbp)
	.loc 2 26 0
	leaq	-176(%rbp), %rax
	xorpd	%xmm1, %xmm1
	xorpd	%xmm0, %xmm0
	movq	%rax, %rdi
	call	_ZNSt7complexIdEC1Edd
	.loc 2 43 0
	leaq	-160(%rbp), %rax
	movsd	.LC1(%rip), %xmm1
	xorpd	%xmm0, %xmm0
	movq	%rax, %rdi
	call	_ZNSt7complexIdEC1Edd
	movq	-160(%rbp), %rax
	movq	%rax, -176(%rbp)
	movq	-152(%rbp), %rax
	movq	%rax, -168(%rbp)
.LBB5:
	.loc 2 44 0
	movl	$1, -32(%rbp)
	jmp	.L9
.L10:
	.loc 2 46 0 discriminator 2
	movl	-32(%rbp), %eax
	cltq
	subq	$1, %rax
	leaq	0(,%rax,8), %rdx
	movq	88(%rbp), %rax
	addq	%rax, %rdx
	movl	$0, %eax
	movq	%rax, (%rdx)
	.loc 2 44 0 discriminator 2
	addl	$1, -32(%rbp)
.L9:
	.loc 2 44 0 is_stmt 0 discriminator 1
	movl	-32(%rbp), %eax
	cmpl	-20(%rbp), %eax
	setle	%al
	testb	%al, %al
	jne	.L10
.LBE5:
	.loc 2 49 0 is_stmt 1
	movl	-180(%rbp), %eax
	movl	-20(%rbp), %edx
	movl	%edx, %ecx
	subl	%eax, %ecx
	movl	%ecx, %eax
	cltq
	leaq	0(,%rax,8), %rdx
	movq	88(%rbp), %rax
	addq	%rdx, %rax
	movq	%rax, -72(%rbp)
.LBB6:
	.loc 2 54 0
	movl	$1, -36(%rbp)
	jmp	.L11
.L12:
	.loc 2 56 0 discriminator 2
	movl	-36(%rbp), %eax
	cltq
	subq	$1, %rax
	leaq	0(,%rax,8), %rdx
	movq	-200(%rbp), %rax
	addq	%rdx, %rax
	movsd	(%rax), %xmm1
	movl	-36(%rbp), %eax
	cltq
	subq	$1, %rax
	leaq	0(,%rax,8), %rdx
	movq	-208(%rbp), %rax
	addq	%rdx, %rax
	movsd	(%rax), %xmm0
	movapd	%xmm1, %xmm2
	mulsd	%xmm0, %xmm2
	movsd	%xmm2, -224(%rbp)
	cvtsi2sd	-180(%rbp), %xmm1
	cvtsi2sd	-184(%rbp), %xmm0
	addsd	%xmm0, %xmm0
	movapd	%xmm1, %xmm3
	divsd	%xmm0, %xmm3
	movapd	%xmm3, %xmm0
	call	sqrt
	movsd	-224(%rbp), %xmm4
	divsd	%xmm0, %xmm4
	movapd	%xmm4, %xmm0
	movl	-36(%rbp), %eax
	cltq
	subq	$1, %rax
	movq	%rax, %rdx
	salq	$4, %rdx
	movq	72(%rbp), %rax
	addq	%rdx, %rax
	movq	%rax, %rdi
	call	_ZNSt7complexIdEaSEd
	.loc 2 54 0 discriminator 2
	addl	$1, -36(%rbp)
.L11:
	.loc 2 54 0 is_stmt 0 discriminator 1
	movl	-36(%rbp), %eax
	cmpl	-180(%rbp), %eax
	setle	%al
	testb	%al, %al
	jne	.L12
.LBE6:
	.loc 2 60 0 is_stmt 1
	movq	112(%rbp), %rax
	movq	%rax, %rdi
.LEHB0:
	call	fftw_execute
.LBB7:
	.loc 2 65 0
	movl	$1, -40(%rbp)
	jmp	.L13
.L14:
	.loc 2 68 0 discriminator 2
	cvtsi2sd	-184(%rbp), %xmm0
	movsd	.LC2(%rip), %xmm1
	mulsd	%xmm1, %xmm0
	cvtsi2sd	-180(%rbp), %xmm1
	movapd	%xmm0, %xmm2
	divsd	%xmm1, %xmm2
	movapd	%xmm2, %xmm1
	cvtsi2sd	-40(%rbp), %xmm0
	movsd	.LC1(%rip), %xmm2
	subsd	%xmm2, %xmm0
	mulsd	%xmm1, %xmm0
	movsd	-80(%rbp), %xmm1
	movapd	%xmm1, %xmm3
	subsd	%xmm0, %xmm3
	movapd	%xmm3, %xmm0
	movsd	%xmm0, -88(%rbp)
	.loc 2 69 0 discriminator 2
	movsd	-88(%rbp), %xmm1
	movsd	.LC3(%rip), %xmm0
	addsd	%xmm1, %xmm0
	movsd	.LC2(%rip), %xmm1
	divsd	%xmm1, %xmm0
	movsd	%xmm0, -96(%rbp)
	.loc 2 70 0 discriminator 2
	movq	-96(%rbp), %rax
	movq	%rax, -240(%rbp)
	movsd	-240(%rbp), %xmm0
	call	floor
	movsd	%xmm0, -240(%rbp)
	movq	-240(%rbp), %rax
	movq	%rax, -96(%rbp)
	.loc 2 71 0 discriminator 2
	movsd	-96(%rbp), %xmm1
	movsd	.LC2(%rip), %xmm0
	mulsd	%xmm1, %xmm0
	movsd	-88(%rbp), %xmm1
	movapd	%xmm1, %xmm4
	subsd	%xmm0, %xmm4
	movapd	%xmm4, %xmm0
	movsd	%xmm0, -104(%rbp)
	.loc 2 72 0 discriminator 2
	cvtsi2sd	-180(%rbp), %xmm0
	movsd	.LC2(%rip), %xmm1
	divsd	%xmm0, %xmm1
	cvtsi2sd	-40(%rbp), %xmm0
	movsd	.LC1(%rip), %xmm2
	subsd	%xmm2, %xmm0
	mulsd	%xmm0, %xmm1
	cvtsi2sd	-184(%rbp), %xmm0
	movsd	-104(%rbp), %xmm2
	movapd	%xmm2, %xmm3
	divsd	%xmm0, %xmm3
	movapd	%xmm3, %xmm0
	addsd	%xmm1, %xmm0
	movsd	%xmm0, -112(%rbp)
	.loc 2 73 0 discriminator 2
	movl	-40(%rbp), %eax
	cltq
	subq	$1, %rax
	leaq	0(,%rax,8), %rdx
	movq	80(%rbp), %rax
	addq	%rax, %rdx
	movl	-40(%rbp), %eax
	cltq
	subq	$1, %rax
	leaq	0(,%rax,8), %rcx
	movq	16(%rbp), %rax
	addq	%rcx, %rax
	movsd	(%rax), %xmm1
	movl	104(%rbp), %eax
	cltq
	subq	$1, %rax
	leaq	0(,%rax,4), %rcx
	movq	-192(%rbp), %rax
	addq	%rcx, %rax
	movl	(%rax), %eax
	cvtsi2sd	%eax, %xmm0
	mulsd	-112(%rbp), %xmm0
	addsd	%xmm1, %xmm0
	movsd	%xmm0, (%rdx)
	.loc 2 75 0 discriminator 2
	movl	-40(%rbp), %eax
	cltq
	subq	$1, %rax
	movq	%rax, %rdx
	salq	$4, %rdx
	movq	-216(%rbp), %rax
	addq	%rax, %rdx
	movl	-40(%rbp), %eax
	cltq
	subq	$1, %rax
	movq	%rax, %rcx
	salq	$4, %rcx
	movq	40(%rbp), %rax
	addq	%rax, %rcx
	movq	(%rcx), %rax
	movq	%rax, (%rdx)
	movq	8(%rcx), %rax
	movq	%rax, 8(%rdx)
	.loc 2 76 0 discriminator 2
	movl	-40(%rbp), %eax
	cltq
	subq	$1, %rax
	leaq	0(,%rax,8), %rdx
	movq	16(%rbp), %rax
	addq	%rax, %rdx
	movl	-40(%rbp), %eax
	cltq
	subq	$1, %rax
	leaq	0(,%rax,8), %rcx
	movq	80(%rbp), %rax
	addq	%rcx, %rax
	movq	(%rax), %rax
	movq	%rax, (%rdx)
	.loc 2 65 0 discriminator 2
	addl	$1, -40(%rbp)
.L13:
	.loc 2 65 0 is_stmt 0 discriminator 1
	movl	-40(%rbp), %eax
	cmpl	-180(%rbp), %eax
	setle	%al
	testb	%al, %al
	jne	.L14
.LBE7:
	.loc 2 81 0 is_stmt 1
	movq	120(%rbp), %rax
	movq	%rax, %rdi
	call	fftw_execute
.LEHE0:
.LBB8:
	.loc 2 82 0
	movl	$1, -44(%rbp)
	jmp	.L15
.L18:
.LBB9:
	.loc 2 84 0
	movl	-44(%rbp), %eax
	cltq
	subq	$1, %rax
	leaq	0(,%rax,8), %rdx
	movq	56(%rbp), %rax
	leaq	(%rdx,%rax), %rbx
	movl	-44(%rbp), %eax
	cltq
	subq	$1, %rax
	movq	%rax, %rdx
	salq	$4, %rdx
	movq	64(%rbp), %rax
	addq	%rdx, %rax
	movq	%rax, %rdi
	call	_ZSt4realIdERT_RSt7complexIS0_E
	movsd	(%rax), %xmm1
	cvtsi2sd	-180(%rbp), %xmm0
	movapd	%xmm1, %xmm4
	divsd	%xmm0, %xmm4
	movapd	%xmm4, %xmm0
	movsd	%xmm0, (%rbx)
	.loc 2 85 0
	movl	-44(%rbp), %eax
	cltq
	subq	$1, %rax
	leaq	0(,%rax,8), %rdx
	movq	56(%rbp), %rax
	leaq	(%rdx,%rax), %rbx
	movl	-44(%rbp), %eax
	cltq
	subq	$1, %rax
	leaq	0(,%rax,8), %rdx
	movq	56(%rbp), %rax
	addq	%rdx, %rax
	movsd	(%rax), %xmm1
	movl	-44(%rbp), %eax
	cltq
	subq	$1, %rax
	leaq	0(,%rax,8), %rdx
	movq	-208(%rbp), %rax
	addq	%rdx, %rax
	movsd	(%rax), %xmm0
	movapd	%xmm1, %xmm2
	mulsd	%xmm0, %xmm2
	movsd	%xmm2, -232(%rbp)
	cvtsi2sd	-180(%rbp), %xmm1
	movl	104(%rbp), %eax
	cltq
	subq	$1, %rax
	leaq	0(,%rax,4), %rdx
	movq	-192(%rbp), %rax
	addq	%rdx, %rax
	movl	(%rax), %eax
	cvtsi2sd	%eax, %xmm0
	addsd	%xmm0, %xmm0
	movapd	%xmm1, %xmm3
	divsd	%xmm0, %xmm3
	movapd	%xmm3, %xmm0
	call	sqrt
	movsd	-232(%rbp), %xmm4
	divsd	%xmm0, %xmm4
	movapd	%xmm4, %xmm0
	movsd	%xmm0, (%rbx)
.LBB10:
	.loc 2 86 0
	movl	$1, -48(%rbp)
	jmp	.L16
.L17:
	.loc 2 88 0 discriminator 2
	movl	-44(%rbp), %eax
	cltq
	subq	$1, %rax
	leaq	0(,%rax,8), %rdx
	movq	24(%rbp), %rax
	addq	%rdx, %rax
	movq	(%rax), %rax
	movl	-48(%rbp), %edx
	movslq	%edx, %rdx
	subq	$1, %rdx
	salq	$3, %rdx
	addq	%rax, %rdx
	movl	-44(%rbp), %eax
	cltq
	subq	$1, %rax
	leaq	0(,%rax,8), %rcx
	movq	24(%rbp), %rax
	addq	%rcx, %rax
	movq	(%rax), %rax
	movl	-48(%rbp), %ecx
	movslq	%ecx, %rcx
	salq	$3, %rcx
	addq	%rcx, %rax
	movq	(%rax), %rax
	movq	%rax, (%rdx)
	.loc 2 86 0 discriminator 2
	addl	$1, -48(%rbp)
.L16:
	.loc 2 86 0 is_stmt 0 discriminator 1
	movl	104(%rbp), %eax
	subl	$1, %eax
	cmpl	-48(%rbp), %eax
	setge	%al
	testb	%al, %al
	jne	.L17
.LBE10:
	.loc 2 90 0 is_stmt 1
	movl	-44(%rbp), %eax
	cltq
	subq	$1, %rax
	leaq	0(,%rax,8), %rdx
	movq	24(%rbp), %rax
	addq	%rdx, %rax
	movq	(%rax), %rax
	movl	104(%rbp), %edx
	movslq	%edx, %rdx
	subq	$1, %rdx
	salq	$3, %rdx
	addq	%rax, %rdx
	movl	-44(%rbp), %eax
	cltq
	subq	$1, %rax
	leaq	0(,%rax,8), %rcx
	movq	56(%rbp), %rax
	addq	%rcx, %rax
	movq	(%rax), %rax
	movq	%rax, (%rdx)
.LBE9:
	.loc 2 82 0
	addl	$1, -44(%rbp)
.L15:
	.loc 2 82 0 is_stmt 0 discriminator 1
	movl	-44(%rbp), %eax
	cmpl	-180(%rbp), %eax
	setle	%al
	testb	%al, %al
	jne	.L18
.LBE8:
.LBB11:
	.loc 2 93 0 is_stmt 1
	movl	$1, -52(%rbp)
	jmp	.L19
.L22:
.LBB12:
.LBB13:
	.loc 2 95 0
	movl	$1, -56(%rbp)
	jmp	.L20
.L21:
	.loc 2 97 0 discriminator 2
	movl	-28(%rbp), %eax
	movl	-56(%rbp), %edx
	addl	%edx, %eax
	cltq
	subq	$1, %rax
	leaq	0(,%rax,8), %rdx
	movq	88(%rbp), %rax
	addq	%rdx, %rax
	movl	-28(%rbp), %edx
	movl	-56(%rbp), %ecx
	addl	%ecx, %edx
	movslq	%edx, %rdx
	subq	$1, %rdx
	leaq	0(,%rdx,8), %rcx
	movq	88(%rbp), %rdx
	addq	%rcx, %rdx
	movsd	(%rdx), %xmm1
	movl	-56(%rbp), %edx
	movslq	%edx, %rdx
	subq	$1, %rdx
	leaq	0(,%rdx,8), %rcx
	movq	24(%rbp), %rdx
	addq	%rcx, %rdx
	movq	(%rdx), %rdx
	movl	-52(%rbp), %ecx
	movslq	%ecx, %rcx
	subq	$1, %rcx
	salq	$3, %rcx
	addq	%rcx, %rdx
	movsd	(%rdx), %xmm0
	addsd	%xmm1, %xmm0
	movsd	%xmm0, (%rax)
	.loc 2 95 0 discriminator 2
	addl	$1, -56(%rbp)
.L20:
	.loc 2 95 0 is_stmt 0 discriminator 1
	movl	-56(%rbp), %eax
	cmpl	-180(%rbp), %eax
	setle	%al
	testb	%al, %al
	jne	.L21
.LBE13:
	.loc 2 99 0 is_stmt 1
	movl	-52(%rbp), %eax
	cltq
	subq	$1, %rax
	leaq	0(,%rax,4), %rdx
	movq	-192(%rbp), %rax
	addq	%rdx, %rax
	movl	(%rax), %eax
	addl	%eax, -28(%rbp)
.LBE12:
	.loc 2 93 0
	addl	$1, -52(%rbp)
.L19:
	.loc 2 93 0 is_stmt 0 discriminator 1
	movl	-52(%rbp), %eax
	cmpl	104(%rbp), %eax
	setle	%al
	testb	%al, %al
	jne	.L22
.LBE11:
	.loc 2 103 0 is_stmt 1
	movl	104(%rbp), %eax
	cltq
	subq	$1, %rax
	leaq	0(,%rax,4), %rdx
	movq	-192(%rbp), %rax
	addq	%rdx, %rax
	movl	(%rax), %eax
	cvtsi2sd	%eax, %xmm0
	cvtsi2sd	-184(%rbp), %xmm1
	divsd	%xmm1, %xmm0
	movsd	%xmm0, -120(%rbp)
.LBB14:
	.loc 2 105 0
	movl	$1, -60(%rbp)
	jmp	.L23
.L24:
	.loc 2 107 0 discriminator 2
	cvtsi2sd	-60(%rbp), %xmm0
	movsd	.LC1(%rip), %xmm1
	subsd	%xmm1, %xmm0
	mulsd	-120(%rbp), %xmm0
	movsd	.LC1(%rip), %xmm1
	addsd	%xmm1, %xmm0
	movsd	%xmm0, -128(%rbp)
	.loc 2 108 0 discriminator 2
	movq	-128(%rbp), %rax
	movq	%rax, -240(%rbp)
	movsd	-240(%rbp), %xmm0
	call	floor
	cvttsd2si	%xmm0, %eax
	movl	%eax, -132(%rbp)
	.loc 2 109 0 discriminator 2
	movq	-128(%rbp), %rax
	movq	%rax, -240(%rbp)
	movsd	-240(%rbp), %xmm0
	call	ceil
	cvttsd2si	%xmm0, %eax
	movl	%eax, -136(%rbp)
	.loc 2 110 0 discriminator 2
	movl	-60(%rbp), %eax
	cltq
	subq	$1, %rax
	leaq	0(,%rax,8), %rdx
	movq	32(%rbp), %rax
	addq	%rdx, %rax
	movl	-132(%rbp), %edx
	movslq	%edx, %rdx
	subq	$1, %rdx
	leaq	0(,%rdx,8), %rcx
	movq	-72(%rbp), %rdx
	addq	%rcx, %rdx
	movsd	(%rdx), %xmm3
	movl	-136(%rbp), %edx
	movslq	%edx, %rdx
	subq	$1, %rdx
	leaq	0(,%rdx,8), %rcx
	movq	-72(%rbp), %rdx
	addq	%rcx, %rdx
	movsd	(%rdx), %xmm0
	movl	-132(%rbp), %edx
	movslq	%edx, %rdx
	subq	$1, %rdx
	leaq	0(,%rdx,8), %rcx
	movq	-72(%rbp), %rdx
	addq	%rcx, %rdx
	movsd	(%rdx), %xmm1
	movapd	%xmm0, %xmm2
	subsd	%xmm1, %xmm2
	movapd	%xmm2, %xmm1
	cvtsi2sd	-132(%rbp), %xmm0
	movsd	-128(%rbp), %xmm2
	movapd	%xmm2, %xmm4
	subsd	%xmm0, %xmm4
	movapd	%xmm4, %xmm0
	mulsd	%xmm1, %xmm0
	addsd	%xmm3, %xmm0
	movsd	%xmm0, (%rax)
	.loc 2 105 0 discriminator 2
	addl	$1, -60(%rbp)
.L23:
	.loc 2 105 0 is_stmt 0 discriminator 1
	movl	-60(%rbp), %eax
	cmpl	-184(%rbp), %eax
	setle	%al
	testb	%al, %al
	jne	.L24
.LBE14:
.LBE3:
	.loc 2 117 0 is_stmt 1
	jmp	.L27
.L26:
	movq	%rax, %rdi
.LEHB1:
	call	_Unwind_Resume
.LEHE1:
.L27:
	addq	$232, %rsp
	popq	%rbx
	popq	%rbp
.LCFI11:
	.cfi_def_cfa 7, 8
	ret
	.cfi_endproc
.LFE1288:
	.globl	__gxx_personality_v0
	.section	.gcc_except_table,"a",@progbits
.LLSDA1288:
	.byte	0xff
	.byte	0xff
	.byte	0x1
	.uleb128 .LLSDACSE1288-.LLSDACSB1288
.LLSDACSB1288:
	.uleb128 .LEHB0-.LFB1288
	.uleb128 .LEHE0-.LEHB0
	.uleb128 .L26-.LFB1288
	.uleb128 0
	.uleb128 .LEHB1-.LFB1288
	.uleb128 .LEHE1-.LEHB1
	.uleb128 0
	.uleb128 0
.LLSDACSE1288:
	.text
	.size	_Z5shiftiiPiPdS0_PSt7complexIdES0_PS0_S0_S3_S3_S0_S3_S3_S0_S0_S0_iP11fftw_plan_sS6_, .-_Z5shiftiiPiPdS0_PSt7complexIdES0_PS0_S0_S3_S3_S0_S3_S3_S0_S0_S0_iP11fftw_plan_sS6_
	.section	.text._ZSt4realIdERT_RSt7complexIS0_E,"axG",@progbits,_ZSt4realIdERT_RSt7complexIS0_E,comdat
	.weak	_ZSt4realIdERT_RSt7complexIS0_E
	.type	_ZSt4realIdERT_RSt7complexIS0_E, @function
_ZSt4realIdERT_RSt7complexIS0_E:
.LFB1289:
	.loc 1 545 0
	.cfi_startproc
	pushq	%rbp
.LCFI12:
	.cfi_def_cfa_offset 16
	.cfi_offset 6, -16
	movq	%rsp, %rbp
.LCFI13:
	.cfi_def_cfa_register 6
	subq	$16, %rsp
	movq	%rdi, -8(%rbp)
	.loc 1 546 0
	movq	-8(%rbp), %rax
	movq	%rax, %rdi
	call	_ZNSt7complexIdE4realEv
	leave
.LCFI14:
	.cfi_def_cfa 7, 8
	ret
	.cfi_endproc
.LFE1289:
	.size	_ZSt4realIdERT_RSt7complexIS0_E, .-_ZSt4realIdERT_RSt7complexIS0_E
	.section	.rodata
	.align 8
.LC1:
	.long	0
	.long	1072693248
	.align 8
.LC2:
	.long	1413754136
	.long	1075388923
	.align 8
.LC3:
	.long	1413754136
	.long	1074340347
	.text
.Letext0:
	.file 3 "/usr/lib/gcc/x86_64-linux-gnu/4.7/include/stddef.h"
	.file 4 "/usr/include/x86_64-linux-gnu/bits/types.h"
	.file 5 "/usr/include/libio.h"
	.file 6 "/usr/include/stdio.h"
	.file 7 "/usr/include/wchar.h"
	.file 8 "<built-in>"
	.file 9 "/usr/local/include/fftw3.h"
	.file 10 "/usr/include/c++/4.7/cwchar"
	.file 11 "/usr/include/c++/4.7/x86_64-linux-gnu/bits/c++config.h"
	.file 12 "/usr/include/c++/4.7/clocale"
	.file 13 "/usr/include/c++/4.7/cwctype"
	.file 14 "/usr/include/c++/4.7/ext/new_allocator.h"
	.file 15 "/usr/include/c++/4.7/ext/numeric_traits.h"
	.file 16 "/usr/include/time.h"
	.file 17 "/usr/include/c++/4.7/bits/cpp_type_traits.h"
	.file 18 "/usr/include/c++/4.7/debug/debug.h"
	.file 19 "/usr/include/locale.h"
	.file 20 "/usr/include/wctype.h"
	.file 21 "shift.h"
	.section	.note.GNU-stack,"",@progbits
